; Function Attrs: mustprogress uwtable
define hidden void @_ZNK2dd4bddv4all1Ev(ptr noalias sret(%"class.dd::bdd") align 8 %agg.result, ptr nocapture noundef nonnull readonly align 8 dereferenceable(16) %this) local_unnamed_addr #3 align 2 personality ptr @__gxx_personality_v0 {
entry:
  %agg.tmp.ensured = alloca %"class.dd::bdd", align 8
  %m = getelementptr inbounds i8, ptr %this, i64 8
  %0 = load ptr, ptr %m, align 8
  tail call void @llvm.experimental.noalias.scope.decl(metadata !442)
  store i32 1, ptr %agg.result, align 8, !alias.scope !442
  %m3.i.i = getelementptr inbounds i8, ptr %agg.result, i64 8
  store ptr %0, ptr %m3.i.i, align 8, !alias.scope !442
  %m_nodes.i.i.i = getelementptr inbounds i8, ptr %0, i64 8
  %1 = load ptr, ptr %m_nodes.i.i.i, align 8, !noalias !442
  %arrayidx.i.i.i.i = getelementptr inbounds i8, ptr %1, i64 16
  %bf.load.i.i.i = load i32, ptr %arrayidx.i.i.i.i, align 4, !noalias !442
  %bf.clear.i.i.i = and i32 %bf.load.i.i.i, 1023
  %cmp.not.i.i.i = icmp eq i32 %bf.clear.i.i.i, 1023
  br i1 %cmp.not.i.i.i, label %if.end.i.i.i, label %if.then.i.i.i

if.then.i.i.i:                                    ; preds = %entry
  %inc.i.i.i = add i32 %bf.load.i.i.i, 1
  %bf.value.i.i.i = and i32 %inc.i.i.i, 1023
  %bf.clear7.i.i.i = and i32 %bf.load.i.i.i, -1024
  %bf.set.i.i.i = or disjoint i32 %bf.value.i.i.i, %bf.clear7.i.i.i
  store i32 %bf.set.i.i.i, ptr %arrayidx.i.i.i.i, align 4, !noalias !442
  br label %if.end.i.i.i

if.end.i.i.i:                                     ; preds = %if.then.i.i.i, %entry
  %m_free_nodes.i.i.i = getelementptr inbounds i8, ptr %0, i64 112
  %2 = load ptr, ptr %m_free_nodes.i.i.i, align 8, !noalias !442
  %cmp.i.i.i.i.i.i = icmp eq ptr %2, null
  br i1 %cmp.i.i.i.i.i.i, label %_ZN2dd11bdd_manager7mk_trueEv.exit, label %_ZNK6vectorIjLb0EjE3endEv.exit.i.i.i.i

_ZNK6vectorIjLb0EjE3endEv.exit.i.i.i.i:           ; preds = %if.end.i.i.i
  %arrayidx.i.i.i.i.i.i = getelementptr inbounds i8, ptr %2, i64 -4
  %3 = load i32, ptr %arrayidx.i.i.i.i.i.i, align 4, !noalias !442
  %4 = zext i32 %3 to i64
  %add.ptr.i.i.i.i.i = getelementptr inbounds i32, ptr %2, i64 %4
  %cmp.not3.not.i.i.i.i = icmp eq i32 %3, 0
  br i1 %cmp.not3.not.i.i.i.i, label %_ZN2dd11bdd_manager7mk_trueEv.exit, label %for.body.i.i.i.i

for.cond.i.i.i.i:                                 ; preds = %for.body.i.i.i.i
  %incdec.ptr.i.i.i.i = getelementptr inbounds i8, ptr %it.04.i.i.i.i, i64 4
  %cmp.not.not.i.i.i.i = icmp eq ptr %incdec.ptr.i.i.i.i, %add.ptr.i.i.i.i.i
  br i1 %cmp.not.not.i.i.i.i, label %_ZN2dd11bdd_manager7mk_trueEv.exit, label %for.body.i.i.i.i, !llvm.loop !19

for.body.i.i.i.i:                                 ; preds = %_ZNK6vectorIjLb0EjE3endEv.exit.i.i.i.i, %for.cond.i.i.i.i
  %it.04.i.i.i.i = phi ptr [ %incdec.ptr.i.i.i.i, %for.cond.i.i.i.i ], [ %2, %_ZNK6vectorIjLb0EjE3endEv.exit.i.i.i.i ]
  %5 = load i32, ptr %it.04.i.i.i.i, align 4, !noalias !442
  %cmp3.i.i.i.i = icmp eq i32 %5, 1
  br i1 %cmp3.i.i.i.i, label %if.then9.i.i.i, label %for.cond.i.i.i.i

if.then9.i.i.i:                                   ; preds = %for.body.i.i.i.i
  tail call void @_Z26notify_assertion_violationPKciS0_(ptr noundef nonnull @.str.15, i32 noundef 186, ptr noundef nonnull @.str.16), !noalias !442
  tail call void @exit(i32 noundef 114) #26, !noalias !442
  unreachable

_ZN2dd11bdd_manager7mk_trueEv.exit:               ; preds = %for.cond.i.i.i.i, %if.end.i.i.i, %_ZNK6vectorIjLb0EjE3endEv.exit.i.i.i.i
  %m.i = getelementptr inbounds i8, ptr %agg.tmp.ensured, i64 8
  br label %for.cond

for.cond:                                         ; preds = %_ZN2dd3bddD2Ev.exit, %_ZN2dd11bdd_manager7mk_trueEv.exit
  %indvars.iv = phi i64 [ %indvars.iv.next, %_ZN2dd3bddD2Ev.exit ], [ 0, %_ZN2dd11bdd_manager7mk_trueEv.exit ]
  %6 = load ptr, ptr %this, align 8
  %cmp.i.i = icmp eq ptr %6, null
  br i1 %cmp.i.i, label %invoke.cont, label %if.end.i.i

if.end.i.i:                                       ; preds = %for.cond
  %arrayidx.i.i = getelementptr inbounds i8, ptr %6, i64 -4
  %7 = load i32, ptr %arrayidx.i.i, align 4
  br label %invoke.cont

invoke.cont:                                      ; preds = %if.end.i.i, %for.cond
  %retval.0.i.i = phi i32 [ %7, %if.end.i.i ], [ 0, %for.cond ]
  %8 = zext i32 %retval.0.i.i to i64
  %cmp = icmp uge i64 %indvars.iv, %8
  %9 = load i32, ptr %agg.result, align 8
  %cmp.i = icmp eq i32 %9, 0
  %or.cond = select i1 %cmp, i1 true, i1 %cmp.i
  br i1 %or.cond, label %nrvo.skipdtor, label %for.body

for.body:                                         ; preds = %invoke.cont
  %arrayidx.i = getelementptr inbounds %"class.dd::bdd", ptr %6, i64 %indvars.iv
  invoke void @_ZN2dd3bddaNERKS0_(ptr nonnull sret(%"class.dd::bdd") align 8 %agg.tmp.ensured, ptr noundef nonnull align 8 dereferenceable(16) %agg.result, ptr noundef nonnull align 8 dereferenceable(16) %arrayidx.i)
          to label %invoke.cont6 unwind label %lpad

invoke.cont6:                                     ; preds = %for.body
  %10 = load ptr, ptr %m.i, align 8
  %11 = load i32, ptr %agg.tmp.ensured, align 8
  %m_nodes.i.i = getelementptr inbounds i8, ptr %10, i64 8
  %12 = load ptr, ptr %m_nodes.i.i, align 8
  %idxprom.i.i.i = zext i32 %11 to i64
  %arrayidx.i.i.i = getelementptr inbounds %"struct.dd::bdd_manager::bdd_node", ptr %12, i64 %idxprom.i.i.i
  %bf.load.i.i = load i32, ptr %arrayidx.i.i.i, align 4
  %bf.clear.i.i = and i32 %bf.load.i.i, 1023
  %cmp.not.i.i = icmp eq i32 %bf.clear.i.i, 1023
  br i1 %cmp.not.i.i, label %if.end.i.i3, label %if.then.i.i

if.then.i.i:                                      ; preds = %invoke.cont6
  %dec.i.i = add i32 %bf.load.i.i, 1023
  %bf.value.i.i = and i32 %dec.i.i, 1023
  %bf.clear7.i.i = and i32 %bf.load.i.i, -1024
  %bf.set.i.i = or disjoint i32 %bf.value.i.i, %bf.clear7.i.i
  store i32 %bf.set.i.i, ptr %arrayidx.i.i.i, align 4
  br label %if.end.i.i3

if.end.i.i3:                                      ; preds = %if.then.i.i, %invoke.cont6
  %m_free_nodes.i.i = getelementptr inbounds i8, ptr %10, i64 112
  %13 = load ptr, ptr %m_free_nodes.i.i, align 8
  %cmp.i.i.i.i.i = icmp eq ptr %13, null
  br i1 %cmp.i.i.i.i.i, label %_ZN2dd3bddD2Ev.exit, label %_ZNK6vectorIjLb0EjE3endEv.exit.i.i.i

_ZNK6vectorIjLb0EjE3endEv.exit.i.i.i:             ; preds = %if.end.i.i3
  %arrayidx.i.i.i.i.i = getelementptr inbounds i8, ptr %13, i64 -4
  %14 = load i32, ptr %arrayidx.i.i.i.i.i, align 4
  %15 = zext i32 %14 to i64
  %add.ptr.i.i.i.i = getelementptr inbounds i32, ptr %13, i64 %15
  %cmp.not3.not.i.i.i = icmp eq i32 %14, 0
  br i1 %cmp.not3.not.i.i.i, label %_ZN2dd3bddD2Ev.exit, label %for.body.i.i.i

for.cond.i.i.i:                                   ; preds = %for.body.i.i.i
  %incdec.ptr.i.i.i = getelementptr inbounds i8, ptr %it.04.i.i.i, i64 4
  %cmp.not.not.i.i.i = icmp eq ptr %incdec.ptr.i.i.i, %add.ptr.i.i.i.i
  br i1 %cmp.not.not.i.i.i, label %_ZN2dd3bddD2Ev.exit, label %for.body.i.i.i, !llvm.loop !19

for.body.i.i.i:                                   ; preds = %_ZNK6vectorIjLb0EjE3endEv.exit.i.i.i, %for.cond.i.i.i
  %it.04.i.i.i = phi ptr [ %incdec.ptr.i.i.i, %for.cond.i.i.i ], [ %13, %_ZNK6vectorIjLb0EjE3endEv.exit.i.i.i ]
  %16 = load i32, ptr %it.04.i.i.i, align 4
  %cmp3.i.i.i = icmp eq i32 %16, %11
  br i1 %cmp3.i.i.i, label %if.then9.i.i, label %for.cond.i.i.i

if.then9.i.i:                                     ; preds = %for.body.i.i.i
  invoke void @_Z26notify_assertion_violationPKciS0_(ptr noundef nonnull @.str.15, i32 noundef 187, ptr noundef nonnull @.str.16)
          to label %.noexc.i unwind label %terminate.lpad.i

.noexc.i:                                         ; preds = %if.then9.i.i
  call void @exit(i32 noundef 114) #26
  unreachable

terminate.lpad.i:                                 ; preds = %if.then9.i.i
  %17 = landingpad { ptr, i32 }
          catch ptr null
  %18 = extractvalue { ptr, i32 } %17, 0
  call void @__clang_call_terminate(ptr %18) #26
  unreachable

_ZN2dd3bddD2Ev.exit:                              ; preds = %for.cond.i.i.i, %if.end.i.i3, %_ZNK6vectorIjLb0EjE3endEv.exit.i.i.i
  %indvars.iv.next = add nuw nsw i64 %indvars.iv, 1
  br label %for.cond, !llvm.loop !445

lpad:                                             ; preds = %for.body
  %19 = landingpad { ptr, i32 }
          cleanup
  call void @_ZN2dd3bddD2Ev(ptr noundef nonnull align 8 dereferenceable(16) %agg.result) #24
  resume { ptr, i32 } %19

nrvo.skipdtor:                                    ; preds = %invoke.cont
  ret void
}